; Function Attrs: nounwind uwtable
define dso_local i64 @ExecFetchSlotHeapTupleDatum(ptr noundef %0) local_unnamed_addr #1 {
  %2 = getelementptr inbounds nuw i8, ptr %0, i64 8
  %3 = load ptr, ptr %2, align 8
  %4 = getelementptr inbounds nuw i8, ptr %3, i64 72
  %5 = load ptr, ptr %4, align 8
  %6 = icmp eq ptr %5, null
  br i1 %6, label %7, label %ExecFetchSlotHeapTuple.exit

7:                                                ; preds = %1
  %8 = getelementptr inbounds nuw i8, ptr %3, i64 88
  %9 = load ptr, ptr %8, align 8
  br label %ExecFetchSlotHeapTuple.exit

ExecFetchSlotHeapTuple.exit:                      ; preds = %1, %7
  %.sink.i = phi ptr [ %9, %7 ], [ %5, %1 ]
  %10 = tail call ptr %.sink.i(ptr noundef nonnull %0) #14
  %11 = getelementptr inbounds nuw i8, ptr %0, i64 16
  %12 = load ptr, ptr %11, align 8
  %13 = tail call i64 @heap_copy_tuple_as_datum(ptr noundef %10, ptr noundef %12) #14
  br i1 %6, label %14, label %15

14:                                               ; preds = %ExecFetchSlotHeapTuple.exit
  tail call void @pfree(ptr noundef %10) #14
  br label %15

15:                                               ; preds = %14, %ExecFetchSlotHeapTuple.exit
  ret i64 %13
}